target datalayout = "e-m:e-p270:32:32-p271:32:32-p272:64:64-i64:64-i128:128-f80:128-n8:16:32:64-S128"
target triple = "x86_64-pc-linux-gnu"

%"struct.std::_Rb_tree_header" = type { %"struct.std::_Rb_tree_node_base", i64 }
%"struct.std::_Rb_tree_node_base" = type { i32, ptr, ptr, ptr }
%"class.std::map.92" = type { %"class.std::_Rb_tree.93" }
%"class.std::_Rb_tree.93" = type { %"struct.std::_Rb_tree<unsigned int, std::pair<const unsigned int, const rocksdb::Comparator *>, std::_Select1st<std::pair<const unsigned int, const rocksdb::Comparator *>>, std::less<unsigned int>>::_Rb_tree_impl" }
%"struct.std::_Rb_tree<unsigned int, std::pair<const unsigned int, const rocksdb::Comparator *>, std::_Select1st<std::pair<const unsigned int, const rocksdb::Comparator *>>, std::less<unsigned int>>::_Rb_tree_impl" = type { [8 x i8], %"struct.std::_Rb_tree_header" }
%"class.rocksdb::WriteBatch::Handler" = type { ptr }
%"class.rocksdb::(anonymous namespace)::InMemoryHandler" = type { %"class.rocksdb::WriteBatch::Handler", ptr, i8, i8, %"class.std::map.92" }

; Function Attrs: mustprogress nounwind uwtable
define linkonce_odr noundef ptr @_ZNKSt8_Rb_treeIjSt4pairIKjPKN7rocksdb10ComparatorEESt10_Select1stIS6_ESt4lessIjESaIS6_EE9_M_mbeginEv(ptr noundef nonnull align 8 dereferenceable(48) %0) #8 comdat align 2 {
  %2 = alloca ptr, align 8
  store ptr %0, ptr %2, align 8, !tbaa !1604
  %3 = load ptr, ptr %2, align 8
  %4 = getelementptr inbounds nuw %"class.std::_Rb_tree.93", ptr %3, i32 0, i32 0
  %5 = getelementptr inbounds i8, ptr %4, i64 8
  %6 = getelementptr inbounds nuw %"struct.std::_Rb_tree_header", ptr %5, i32 0, i32 0
  %7 = getelementptr inbounds nuw %"struct.std::_Rb_tree_node_base", ptr %6, i32 0, i32 1
  %8 = load ptr, ptr %7, align 8, !tbaa !1600
  ret ptr %8
}

; Function Attrs: mustprogress nounwind uwtable
define linkonce_odr void @_ZNSt15__new_allocatorISt13_Rb_tree_nodeISt4pairIKjPKN7rocksdb10ComparatorEEEED2Ev(ptr noundef nonnull align 1 dereferenceable(1) %0) unnamed_addr #8 comdat align 2 {
  %2 = alloca ptr, align 8
  store ptr %0, ptr %2, align 8, !tbaa !1612
  ret void
}

; Function Attrs: mustprogress nounwind uwtable
define linkonce_odr noundef ptr @_ZNSt8_Rb_treeIjSt4pairIKjPKN7rocksdb10ComparatorEESt10_Select1stIS6_ESt4lessIjESaIS6_EE8_M_beginEv(ptr noundef nonnull align 8 dereferenceable(48) %0) #8 comdat align 2 {
  %2 = alloca ptr, align 8
  store ptr %0, ptr %2, align 8, !tbaa !1604
  %3 = load ptr, ptr %2, align 8
  %4 = call noundef ptr @_ZNKSt8_Rb_treeIjSt4pairIKjPKN7rocksdb10ComparatorEESt10_Select1stIS6_ESt4lessIjESaIS6_EE9_M_mbeginEv(ptr noundef nonnull align 8 dereferenceable(48) %3) #3
  ret ptr %4
}

; Function Attrs: mustprogress nounwind uwtable
define linkonce_odr void @_ZNSt8_Rb_treeIjSt4pairIKjPKN7rocksdb10ComparatorEESt10_Select1stIS6_ESt4lessIjESaIS6_EED2Ev(ptr noundef nonnull align 8 dereferenceable(48) %0) unnamed_addr #8 comdat align 2 personality ptr @__gxx_personality_v0 {
  %2 = alloca ptr, align 8
  store ptr %0, ptr %2, align 8, !tbaa !1604
  %3 = load ptr, ptr %2, align 8
  %4 = call noundef ptr @_ZNSt8_Rb_treeIjSt4pairIKjPKN7rocksdb10ComparatorEESt10_Select1stIS6_ESt4lessIjESaIS6_EE8_M_beginEv(ptr noundef nonnull align 8 dereferenceable(48) %3) #3
  invoke void @_ZNSt8_Rb_treeIjSt4pairIKjPKN7rocksdb10ComparatorEESt10_Select1stIS6_ESt4lessIjESaIS6_EE8_M_eraseEPSt13_Rb_tree_nodeIS6_E(ptr noundef nonnull align 8 dereferenceable(48) %3, ptr noundef %4)
          to label %5 unwind label %7

5:                                                ; preds = %1
  %6 = getelementptr inbounds nuw %"class.std::_Rb_tree.93", ptr %3, i32 0, i32 0
  call void @_ZNSt15__new_allocatorISt13_Rb_tree_nodeISt4pairIKjPKN7rocksdb10ComparatorEEEED2Ev(ptr noundef nonnull align 8 dereferenceable(48) %6) #3
  ret void

7:                                                ; preds = %1
  %8 = landingpad { ptr, i32 }
          catch ptr null
  %9 = extractvalue { ptr, i32 } %8, 0
  call void @__clang_call_terminate(ptr %9) #28
  unreachable
}

; Function Attrs: mustprogress nounwind uwtable
define linkonce_odr void @_ZNSt3mapIjPKN7rocksdb10ComparatorESt4lessIjESaISt4pairIKjS3_EEED2Ev(ptr noundef nonnull align 8 dereferenceable(48) %0) unnamed_addr #8 comdat align 2 {
  %2 = alloca ptr, align 8
  store ptr %0, ptr %2, align 8, !tbaa !283
  %3 = load ptr, ptr %2, align 8
  %4 = getelementptr inbounds nuw %"class.std::map.92", ptr %3, i32 0, i32 0
  call void @_ZNSt8_Rb_treeIjSt4pairIKjPKN7rocksdb10ComparatorEESt10_Select1stIS6_ESt4lessIjESaIS6_EED2Ev(ptr noundef nonnull align 8 dereferenceable(48) %4) #3
  ret void
}

; Function Attrs: mustprogress nounwind uwtable
define internal void @_ZN7rocksdb12_GLOBAL__N_115InMemoryHandlerD2Ev(ptr noundef nonnull align 8 dereferenceable(72) %0) unnamed_addr #8 align 2 {
  %2 = alloca ptr, align 8
  store ptr %0, ptr %2, align 8, !tbaa !2236
  %3 = load ptr, ptr %2, align 8
  store ptr getelementptr inbounds inrange(-16, 192) ({ [26 x ptr] }, ptr @_ZTVN7rocksdb12_GLOBAL__N_115InMemoryHandlerE, i32 0, i32 0, i32 2), ptr %3, align 8, !tbaa !26
  %4 = getelementptr inbounds nuw %"class.rocksdb::(anonymous namespace)::InMemoryHandler", ptr %3, i32 0, i32 4
  call void @_ZNSt3mapIjPKN7rocksdb10ComparatorESt4lessIjESaISt4pairIKjS3_EEED2Ev(ptr noundef nonnull align 8 dereferenceable(48) %4) #3
  call void @_ZN7rocksdb10WriteBatch7HandlerD2Ev(ptr noundef nonnull align 8 dereferenceable(8) %3) #3
  ret void
}