; Function Attrs: mustprogress nounwind uwtable
define internal void @_ZN7rocksdb12_GLOBAL__N_115InMemoryHandlerD2Ev(ptr noundef nonnull align 8 dereferenceable(72) initializes((0, 8)) %0) unnamed_addr #4 align 2 personality ptr @__gxx_personality_v0 {
  store ptr getelementptr inbounds nuw inrange(-16, 192) (i8, ptr @_ZTVN7rocksdb12_GLOBAL__N_115InMemoryHandlerE, i64 16), ptr %0, align 8, !tbaa !45
  %2 = getelementptr inbounds nuw i8, ptr %0, i64 24
  %3 = getelementptr inbounds nuw i8, ptr %0, i64 40
  %4 = load ptr, ptr %3, align 8, !tbaa !40
  invoke void @_ZNSt8_Rb_treeIjSt4pairIKjPKN7rocksdb10ComparatorEESt10_Select1stIS6_ESt4lessIjESaIS6_EE8_M_eraseEPSt13_Rb_tree_nodeIS6_E(ptr noundef nonnull align 8 dereferenceable(48) %2, ptr noundef %4)
          to label %_ZNSt3mapIjPKN7rocksdb10ComparatorESt4lessIjESaISt4pairIKjS3_EEED2Ev.exit unwind label %5

5:                                                ; preds = %1
  %6 = landingpad { ptr, i32 }
          catch ptr null
  %7 = extractvalue { ptr, i32 } %6, 0
  tail call void @__clang_call_terminate(ptr %7) #36
  unreachable

_ZNSt3mapIjPKN7rocksdb10ComparatorESt4lessIjESaISt4pairIKjS3_EEED2Ev.exit: ; preds = %1
  tail call void @_ZN7rocksdb10WriteBatch7HandlerD2Ev(ptr noundef nonnull align 8 dereferenceable(8) %0) #35
  ret void
}